target datalayout = "e-m:e-p270:32:32-p271:32:32-p272:64:64-i64:64-i128:128-f80:128-n8:16:32:64-S128"
target triple = "x86_64-pc-linux-gnu"

%"class.std::__cxx11::basic_string" = type { %"struct.std::__cxx11::basic_string<char>::_Alloc_hider", i64, %union.anon }
%"struct.std::__cxx11::basic_string<char>::_Alloc_hider" = type { ptr }
%union.anon = type { i64, [8 x i8] }
%"class.xgboost::common::PeekableInStream" = type { %"class.dmlc::Stream", ptr, i64, %"class.std::__cxx11::basic_string" }
%"class.dmlc::Stream" = type { ptr }

; Function Attrs: mustprogress nounwind uwtable
define available_externally noundef ptr @_ZNKSt7__cxx1112basic_stringIcSt11char_traitsIcESaIcEE7_M_dataEv(ptr noundef nonnull align 8 dereferenceable(32) %0) #6 align 2 {
  %2 = alloca ptr, align 8
  store ptr %0, ptr %2, align 8, !tbaa !21
  %3 = load ptr, ptr %2, align 8
  %4 = getelementptr inbounds nuw %"class.std::__cxx11::basic_string", ptr %3, i32 0, i32 0
  %5 = getelementptr inbounds nuw %"struct.std::__cxx11::basic_string<char>::_Alloc_hider", ptr %4, i32 0, i32 0
  %6 = load ptr, ptr %5, align 8, !tbaa !194
  ret ptr %6
}

; Function Attrs: mustprogress nounwind uwtable
define available_externally noundef nonnull align 1 dereferenceable(1) ptr @_ZNSt7__cxx1112basic_stringIcSt11char_traitsIcESaIcEEixEm(ptr noundef nonnull align 8 dereferenceable(32) %0, i64 noundef %1) #6 align 2 {
  %3 = alloca ptr, align 8
  %4 = alloca i64, align 8
  store ptr %0, ptr %3, align 8, !tbaa !21
  store i64 %1, ptr %4, align 8, !tbaa !9
  %5 = load ptr, ptr %3, align 8
  br label %6

6:                                                ; preds = %2
  br label %7

7:                                                ; preds = %6
  %8 = call noundef ptr @_ZNKSt7__cxx1112basic_stringIcSt11char_traitsIcESaIcEE7_M_dataEv(ptr noundef nonnull align 8 dereferenceable(32) %5)
  %9 = load i64, ptr %4, align 8, !tbaa !9
  %10 = getelementptr inbounds nuw i8, ptr %8, i64 %9
  ret ptr %10
}

; Function Attrs: inlinehint mustprogress uwtable
define linkonce_odr noundef ptr @_ZN4dmlc8BeginPtrERNSt7__cxx1112basic_stringIcSt11char_traitsIcESaIcEEE(ptr noundef nonnull align 8 dereferenceable(32) %0) #7 comdat {
  %2 = alloca ptr, align 8
  %3 = alloca ptr, align 8
  store ptr %0, ptr %3, align 8, !tbaa !21
  %4 = load ptr, ptr %3, align 8, !tbaa !21
  %5 = call noundef i64 @_ZNKSt7__cxx1112basic_stringIcSt11char_traitsIcESaIcEE6lengthEv(ptr noundef nonnull align 8 dereferenceable(32) %4) #3
  %6 = icmp eq i64 %5, 0
  br i1 %6, label %7, label %8

7:                                                ; preds = %1
  store ptr null, ptr %2, align 8
  br label %11

8:                                                ; preds = %1
  %9 = load ptr, ptr %3, align 8, !tbaa !21
  %10 = call noundef nonnull align 1 dereferenceable(1) ptr @_ZNSt7__cxx1112basic_stringIcSt11char_traitsIcESaIcEEixEm(ptr noundef nonnull align 8 dereferenceable(32) %9, i64 noundef 0)
  store ptr %10, ptr %2, align 8
  br label %11

11:                                               ; preds = %8, %7
  %12 = load ptr, ptr %2, align 8
  ret ptr %12
}

; Function Attrs: mustprogress nounwind uwtable
define available_externally noundef i64 @_ZNKSt7__cxx1112basic_stringIcSt11char_traitsIcESaIcEE6lengthEv(ptr noundef nonnull align 8 dereferenceable(32) %0) #6 align 2 {
  %2 = alloca ptr, align 8
  store ptr %0, ptr %2, align 8, !tbaa !21
  %3 = load ptr, ptr %2, align 8
  %4 = getelementptr inbounds nuw %"class.std::__cxx11::basic_string", ptr %3, i32 0, i32 1
  %5 = load i64, ptr %4, align 8, !tbaa !23
  ret i64 %5
}

; Function Attrs: mustprogress uwtable
define noundef i64 @_ZN7xgboost6common16PeekableInStream4ReadEPvm(ptr noundef nonnull align 8 dereferenceable(56) %0, ptr noundef %1, i64 noundef %2) unnamed_addr #4 align 2 {
  %4 = alloca i64, align 8
  %5 = alloca ptr, align 8
  %6 = alloca ptr, align 8
  %7 = alloca i64, align 8
  %8 = alloca i64, align 8
  %9 = alloca i32, align 4
  store ptr %0, ptr %5, align 8, !tbaa !3
  store ptr %1, ptr %6, align 8, !tbaa !8
  store i64 %2, ptr %7, align 8, !tbaa !9
  %10 = load ptr, ptr %5, align 8
  call void @llvm.lifetime.start.p0(i64 8, ptr %8) #3
  %11 = getelementptr inbounds nuw %"class.xgboost::common::PeekableInStream", ptr %10, i32 0, i32 3
  %12 = call noundef i64 @_ZNKSt7__cxx1112basic_stringIcSt11char_traitsIcESaIcEE6lengthEv(ptr noundef nonnull align 8 dereferenceable(32) %11) #3
  %13 = getelementptr inbounds nuw %"class.xgboost::common::PeekableInStream", ptr %10, i32 0, i32 2
  %14 = load i64, ptr %13, align 8, !tbaa !11
  %15 = sub i64 %12, %14
  store i64 %15, ptr %8, align 8, !tbaa !9
  %16 = load i64, ptr %8, align 8, !tbaa !9
  %17 = icmp eq i64 %16, 0
  br i1 %17, label %18, label %27

18:                                               ; preds = %3
  %19 = getelementptr inbounds nuw %"class.xgboost::common::PeekableInStream", ptr %10, i32 0, i32 1
  %20 = load ptr, ptr %19, align 8, !tbaa !18
  %21 = load ptr, ptr %6, align 8, !tbaa !8
  %22 = load i64, ptr %7, align 8, !tbaa !9
  %23 = load ptr, ptr %20, align 8, !tbaa !19
  %24 = getelementptr inbounds ptr, ptr %23, i64 0
  %25 = load ptr, ptr %24, align 8
  %26 = call noundef i64 %25(ptr noundef nonnull align 8 dereferenceable(8) %20, ptr noundef %21, i64 noundef %22)
  store i64 %26, ptr %4, align 8
  store i32 1, ptr %9, align 4
  br label %70

27:                                               ; preds = %3
  %28 = load i64, ptr %8, align 8, !tbaa !9
  %29 = load i64, ptr %7, align 8, !tbaa !9
  %30 = icmp ult i64 %28, %29
  br i1 %30, label %31, label %57

31:                                               ; preds = %27
  %32 = load ptr, ptr %6, align 8, !tbaa !8
  %33 = getelementptr inbounds nuw %"class.xgboost::common::PeekableInStream", ptr %10, i32 0, i32 3
  %34 = call noundef ptr @_ZN4dmlc8BeginPtrERNSt7__cxx1112basic_stringIcSt11char_traitsIcESaIcEEE(ptr noundef nonnull align 8 dereferenceable(32) %33)
  %35 = getelementptr inbounds nuw %"class.xgboost::common::PeekableInStream", ptr %10, i32 0, i32 2
  %36 = load i64, ptr %35, align 8, !tbaa !11
  %37 = getelementptr inbounds nuw i8, ptr %34, i64 %36
  %38 = load i64, ptr %8, align 8, !tbaa !9
  call void @llvm.memcpy.p0.p0.i64(ptr align 1 %32, ptr align 1 %37, i64 %38, i1 false)
  %39 = load i64, ptr %8, align 8, !tbaa !9
  %40 = getelementptr inbounds nuw %"class.xgboost::common::PeekableInStream", ptr %10, i32 0, i32 2
  %41 = load i64, ptr %40, align 8, !tbaa !11
  %42 = add i64 %41, %39
  store i64 %42, ptr %40, align 8, !tbaa !11
  %43 = load i64, ptr %8, align 8, !tbaa !9
  %44 = getelementptr inbounds nuw %"class.xgboost::common::PeekableInStream", ptr %10, i32 0, i32 1
  %45 = load ptr, ptr %44, align 8, !tbaa !18
  %46 = load ptr, ptr %6, align 8, !tbaa !8
  %47 = load i64, ptr %8, align 8, !tbaa !9
  %48 = getelementptr inbounds nuw i8, ptr %46, i64 %47
  %49 = load i64, ptr %7, align 8, !tbaa !9
  %50 = load i64, ptr %8, align 8, !tbaa !9
  %51 = sub i64 %49, %50
  %52 = load ptr, ptr %45, align 8, !tbaa !19
  %53 = getelementptr inbounds ptr, ptr %52, i64 0
  %54 = load ptr, ptr %53, align 8
  %55 = call noundef i64 %54(ptr noundef nonnull align 8 dereferenceable(8) %45, ptr noundef %48, i64 noundef %51)
  %56 = add i64 %43, %55
  store i64 %56, ptr %4, align 8
  store i32 1, ptr %9, align 4
  br label %70

57:                                               ; preds = %27
  %58 = load ptr, ptr %6, align 8, !tbaa !8
  %59 = getelementptr inbounds nuw %"class.xgboost::common::PeekableInStream", ptr %10, i32 0, i32 3
  %60 = call noundef ptr @_ZN4dmlc8BeginPtrERNSt7__cxx1112basic_stringIcSt11char_traitsIcESaIcEEE(ptr noundef nonnull align 8 dereferenceable(32) %59)
  %61 = getelementptr inbounds nuw %"class.xgboost::common::PeekableInStream", ptr %10, i32 0, i32 2
  %62 = load i64, ptr %61, align 8, !tbaa !11
  %63 = getelementptr inbounds nuw i8, ptr %60, i64 %62
  %64 = load i64, ptr %7, align 8, !tbaa !9
  call void @llvm.memcpy.p0.p0.i64(ptr align 1 %58, ptr align 1 %63, i64 %64, i1 false)
  %65 = load i64, ptr %7, align 8, !tbaa !9
  %66 = getelementptr inbounds nuw %"class.xgboost::common::PeekableInStream", ptr %10, i32 0, i32 2
  %67 = load i64, ptr %66, align 8, !tbaa !11
  %68 = add i64 %67, %65
  store i64 %68, ptr %66, align 8, !tbaa !11
  %69 = load i64, ptr %7, align 8, !tbaa !9
  store i64 %69, ptr %4, align 8
  store i32 1, ptr %9, align 4
  br label %70

70:                                               ; preds = %57, %31, %18
  call void @llvm.lifetime.end.p0(i64 8, ptr %8) #3
  %71 = load i64, ptr %4, align 8
  ret i64 %71
}