; Function Attrs: mustprogress uwtable
define noundef i64 @_ZN7xgboost6common16PeekableInStream4ReadEPvm(ptr noundef nonnull align 8 captures(none) dereferenceable(56) %0, ptr noundef %1, i64 noundef %2) unnamed_addr #3 align 2 {
  %4 = getelementptr inbounds nuw i8, ptr %0, i64 32
  %5 = load i64, ptr %4, align 8, !tbaa !3
  %6 = getelementptr inbounds nuw i8, ptr %0, i64 16
  %7 = load i64, ptr %6, align 8, !tbaa !11
  %8 = sub i64 %5, %7
  %9 = icmp eq i64 %5, %7
  br i1 %9, label %10, label %16

10:                                               ; preds = %3
  %11 = getelementptr inbounds nuw i8, ptr %0, i64 8
  %12 = load ptr, ptr %11, align 8, !tbaa !15
  %13 = load ptr, ptr %12, align 8, !tbaa !16
  %14 = load ptr, ptr %13, align 8
  %15 = tail call noundef i64 %14(ptr noundef nonnull align 8 dereferenceable(8) %12, ptr noundef %1, i64 noundef %2)
  br label %36

16:                                               ; preds = %3
  %17 = getelementptr inbounds nuw i8, ptr %0, i64 24
  %18 = icmp ult i64 %8, %2
  %19 = icmp eq i64 %5, 0
  %20 = load ptr, ptr %17, align 8
  %spec.select.i = select i1 %19, ptr null, ptr %20
  %21 = getelementptr inbounds nuw i8, ptr %spec.select.i, i64 %7
  br i1 %18, label %22, label %33

22:                                               ; preds = %16
  tail call void @llvm.memcpy.p0.p0.i64(ptr align 1 %1, ptr align 1 %21, i64 %8, i1 false)
  %23 = load i64, ptr %6, align 8, !tbaa !11
  %24 = add i64 %23, %8
  store i64 %24, ptr %6, align 8, !tbaa !11
  %25 = getelementptr inbounds nuw i8, ptr %0, i64 8
  %26 = load ptr, ptr %25, align 8, !tbaa !15
  %27 = getelementptr inbounds nuw i8, ptr %1, i64 %8
  %28 = sub nuw i64 %2, %8
  %29 = load ptr, ptr %26, align 8, !tbaa !16
  %30 = load ptr, ptr %29, align 8
  %31 = tail call noundef i64 %30(ptr noundef nonnull align 8 dereferenceable(8) %26, ptr noundef nonnull %27, i64 noundef %28)
  %32 = add i64 %31, %8
  br label %36

33:                                               ; preds = %16
  tail call void @llvm.memcpy.p0.p0.i64(ptr align 1 %1, ptr align 1 %21, i64 %2, i1 false)
  %34 = load i64, ptr %6, align 8, !tbaa !11
  %35 = add i64 %34, %2
  store i64 %35, ptr %6, align 8, !tbaa !11
  br label %36

36:                                               ; preds = %33, %22, %10
  %.0 = phi i64 [ %15, %10 ], [ %32, %22 ], [ %2, %33 ]
  ret i64 %.0
}